; Function Attrs: mustprogress uwtable
define noundef range(i32 0, 65536) i32 @_Z22grpc_sockaddr_get_portPK21grpc_resolved_address(ptr noundef readonly captures(none) %0) local_unnamed_addr #3 personality ptr @__gxx_personality_v0 {
  %2 = alloca i16, align 2
  %3 = alloca %"class.absl::lts_20240722::log_internal::LogMessage", align 8
  %4 = load i16, ptr %0, align 2, !tbaa !4
  switch i16 %4, label %13 [
    i16 2, label %5
    i16 10, label %9
    i16 1, label %19
    i16 40, label %19
  ]

5:                                                ; preds = %1
  %6 = getelementptr inbounds nuw i8, ptr %0, i64 2
  %7 = load i16, ptr %6, align 2, !tbaa !16
  %8 = tail call noundef zeroext i16 @_Z10grpc_ntohst(i16 noundef zeroext %7)
  br label %19

9:                                                ; preds = %1
  %10 = getelementptr inbounds nuw i8, ptr %0, i64 2
  %11 = load i16, ptr %10, align 2, !tbaa !13
  %12 = tail call noundef zeroext i16 @_Z10grpc_ntohst(i16 noundef zeroext %11)
  br label %19

13:                                               ; preds = %1
  call void @llvm.lifetime.start.p0(i64 16, ptr nonnull %3) #23
  call void @_ZN4absl12lts_2024072212log_internal10LogMessageC1EPKciNS2_8ErrorTagE(ptr noundef nonnull align 8 dereferenceable(16) %3, ptr noundef nonnull @.str, i32 noundef 372) #24
  invoke void @_ZN4absl12lts_2024072212log_internal10LogMessage19CopyToEncodedBufferILNS2_10StringTypeE0EEEvSt17basic_string_viewIcSt11char_traitsIcEE(ptr noundef nonnull align 8 dereferenceable(16) %3, i64 22, ptr nonnull @.str.17)
          to label %_ZN4absl12lts_2024072212log_internal10LogMessagelsILi23EEERS2_RAT__Kc.exit unwind label %17

_ZN4absl12lts_2024072212log_internal10LogMessagelsILi23EEERS2_RAT__Kc.exit: ; preds = %13
  %14 = load i16, ptr %0, align 2, !tbaa !4
  call void @llvm.lifetime.start.p0(i64 2, ptr nonnull %2)
  store i16 %14, ptr %2, align 2, !tbaa !24
  %15 = invoke noundef nonnull align 8 dereferenceable(16) ptr @_ZN4absl12lts_2024072212log_internal10LogMessagelsItTnNSt9enable_ifIXntsr4absl16HasAbslStringifyIT_EE5valueEiE4typeELi0EEERS2_RKS5_(ptr noundef nonnull align 8 dereferenceable(16) %3, ptr noundef nonnull align 2 dereferenceable(2) %2)
          to label %16 unwind label %17

16:                                               ; preds = %_ZN4absl12lts_2024072212log_internal10LogMessagelsILi23EEERS2_RAT__Kc.exit
  call void @llvm.lifetime.end.p0(i64 2, ptr nonnull %2)
  invoke void @_ZN4absl12lts_2024072212log_internal10LogMessage19CopyToEncodedBufferILNS2_10StringTypeE0EEEvSt17basic_string_viewIcSt11char_traitsIcEE(ptr noundef nonnull align 8 dereferenceable(16) %15, i64 26, ptr nonnull @.str.18)
          to label %_ZN4absl12lts_2024072212log_internal10LogMessagelsILi27EEERS2_RAT__Kc.exit unwind label %17

_ZN4absl12lts_2024072212log_internal10LogMessagelsILi27EEERS2_RAT__Kc.exit: ; preds = %16
  call void @_ZN4absl12lts_2024072212log_internal10LogMessageD1Ev(ptr noundef nonnull align 8 dereferenceable(16) %3) #30
  call void @llvm.lifetime.end.p0(i64 16, ptr nonnull %3) #23
  br label %19

17:                                               ; preds = %16, %_ZN4absl12lts_2024072212log_internal10LogMessagelsILi23EEERS2_RAT__Kc.exit, %13
  %18 = landingpad { ptr, i32 }
          cleanup
  call void @_ZN4absl12lts_2024072212log_internal10LogMessageD1Ev(ptr noundef nonnull align 8 dereferenceable(16) %3) #30
  call void @llvm.lifetime.end.p0(i64 16, ptr nonnull %3) #23
  resume { ptr, i32 } %18

19:                                               ; preds = %1, %1, %_ZN4absl12lts_2024072212log_internal10LogMessagelsILi27EEERS2_RAT__Kc.exit, %9, %5
  %.0.shrunk = phi i16 [ 0, %_ZN4absl12lts_2024072212log_internal10LogMessagelsILi27EEERS2_RAT__Kc.exit ], [ %12, %9 ], [ %8, %5 ], [ 1, %1 ], [ 1, %1 ]
  %.0 = zext i16 %.0.shrunk to i32
  ret i32 %.0
}